target datalayout = "e-m:e-p270:32:32-p271:32:32-p272:64:64-i64:64-i128:128-f80:128-n8:16:32:64-S128"
target triple = "x86_64-unknown-linux-gnu"

%"class.std::vector" = type { %"struct.std::_Vector_base" }
%"struct.std::_Vector_base" = type { %"struct.std::_Vector_base<std::shared_ptr<facebook::velox::exec::FunctionSignature>, std::allocator<std::shared_ptr<facebook::velox::exec::FunctionSignature>>>::_Vector_impl" }
%"struct.std::_Vector_base<std::shared_ptr<facebook::velox::exec::FunctionSignature>, std::allocator<std::shared_ptr<facebook::velox::exec::FunctionSignature>>>::_Vector_impl" = type { %"struct.std::_Vector_base<std::shared_ptr<facebook::velox::exec::FunctionSignature>, std::allocator<std::shared_ptr<facebook::velox::exec::FunctionSignature>>>::_Vector_impl_data" }
%"struct.std::_Vector_base<std::shared_ptr<facebook::velox::exec::FunctionSignature>, std::allocator<std::shared_ptr<facebook::velox::exec::FunctionSignature>>>::_Vector_impl_data" = type { ptr, ptr, ptr }
%"class.std::function" = type { %"class.std::_Function_base", ptr }
%"class.std::_Function_base" = type { %"union.std::_Any_data", ptr }
%"union.std::_Any_data" = type { %"union.std::_Nocopy_types" }
%"union.std::_Nocopy_types" = type { { i64, i64 } }
%class.anon = type { i8 }
%"struct.facebook::velox::exec::VectorFunctionMetadata" = type { i8 }

; Function Attrs: mustprogress nounwind uwtable
define linkonce_odr noundef ptr @_ZNSt9_Any_data9_M_accessEv(ptr noundef nonnull align 8 dereferenceable(16) %this) #2 comdat align 2 {
entry:
  %this.addr = alloca ptr, align 8
  store ptr %this, ptr %this.addr, align 8
  %this1 = load ptr, ptr %this.addr, align 8
  %arrayidx = getelementptr inbounds [16 x i8], ptr %this1, i64 0, i64 0
  ret ptr %arrayidx
}

; Function Attrs: mustprogress nounwind uwtable
define internal void @"_ZNSt14_Function_base13_Base_managerIZN8facebook5velox9functions25registerSubscriptFunctionERKNSt7__cxx1112basic_stringIcSt11char_traitsIcESaIcEEEbE3$_0E9_M_createISC_EEvRSt9_Any_dataOT_St17integral_constantIbLb1EE"(ptr noundef nonnull align 8 dereferenceable(16) %__dest, ptr noundef nonnull align 1 dereferenceable(1) %__f) #2 align 2 {
entry:
  %__dest.addr = alloca ptr, align 8
  %__f.addr = alloca ptr, align 8
  store ptr %__dest, ptr %__dest.addr, align 8
  store ptr %__f, ptr %__f.addr, align 8
  %0 = load ptr, ptr %__dest.addr, align 8
  %call = call noundef ptr @_ZNSt9_Any_data9_M_accessEv(ptr noundef nonnull align 8 dereferenceable(16) %0) #11
  %1 = load ptr, ptr %__f.addr, align 8
  call void @llvm.memcpy.p0.p0.i64(ptr align 1 %call, ptr align 1 %1, i64 1, i1 false)
  ret void
}

; Function Attrs: mustprogress nounwind uwtable
define linkonce_odr void @_ZNSt14_Function_baseD2Ev(ptr noundef nonnull align 8 dereferenceable(24) %this) unnamed_addr #2 comdat align 2 personality ptr @__gxx_personality_v0 {
entry:
  %this.addr = alloca ptr, align 8
  store ptr %this, ptr %this.addr, align 8
  %this1 = load ptr, ptr %this.addr, align 8
  %_M_manager = getelementptr inbounds %"class.std::_Function_base", ptr %this1, i32 0, i32 1
  %0 = load ptr, ptr %_M_manager, align 8
  %tobool = icmp ne ptr %0, null
  br i1 %tobool, label %if.then, label %if.end

if.then:                                          ; preds = %entry
  %_M_manager2 = getelementptr inbounds %"class.std::_Function_base", ptr %this1, i32 0, i32 1
  %1 = load ptr, ptr %_M_manager2, align 8
  %_M_functor = getelementptr inbounds %"class.std::_Function_base", ptr %this1, i32 0, i32 0
  %_M_functor3 = getelementptr inbounds %"class.std::_Function_base", ptr %this1, i32 0, i32 0
  %call = invoke noundef zeroext i1 %1(ptr noundef nonnull align 8 dereferenceable(16) %_M_functor, ptr noundef nonnull align 8 dereferenceable(16) %_M_functor3, i32 noundef 3)
          to label %invoke.cont unwind label %terminate.lpad

invoke.cont:                                      ; preds = %if.then
  br label %if.end

if.end:                                           ; preds = %invoke.cont, %entry
  ret void

terminate.lpad:                                   ; preds = %if.then
  %2 = landingpad { ptr, i32 }
          catch ptr null
  %3 = extractvalue { ptr, i32 } %2, 0
  call void @__clang_call_terminate(ptr %3) #18
  unreachable
}

; Function Attrs: mustprogress nounwind uwtable
define internal void @"_ZNSt14_Function_base13_Base_managerIZN8facebook5velox9functions25registerSubscriptFunctionERKNSt7__cxx1112basic_stringIcSt11char_traitsIcESaIcEEEbE3$_0E15_M_init_functorISC_EEvRSt9_Any_dataOT_"(ptr noundef nonnull align 8 dereferenceable(16) %__functor, ptr noundef nonnull align 1 dereferenceable(1) %__f) #2 align 2 personality ptr @__gxx_personality_v0 {
entry:
  %__functor.addr = alloca ptr, align 8
  %__f.addr = alloca ptr, align 8
  store ptr %__functor, ptr %__functor.addr, align 8
  store ptr %__f, ptr %__f.addr, align 8
  %0 = load ptr, ptr %__functor.addr, align 8
  %1 = load ptr, ptr %__f.addr, align 8
  invoke void @"_ZNSt14_Function_base13_Base_managerIZN8facebook5velox9functions25registerSubscriptFunctionERKNSt7__cxx1112basic_stringIcSt11char_traitsIcESaIcEEEbE3$_0E9_M_createISC_EEvRSt9_Any_dataOT_St17integral_constantIbLb1EE"(ptr noundef nonnull align 8 dereferenceable(16) %0, ptr noundef nonnull align 1 dereferenceable(1) %1)
          to label %invoke.cont unwind label %terminate.lpad

invoke.cont:                                      ; preds = %entry
  ret void

terminate.lpad:                                   ; preds = %entry
  %2 = landingpad { ptr, i32 }
          catch ptr null
  %3 = extractvalue { ptr, i32 } %2, 0
  call void @__clang_call_terminate(ptr %3) #18
  unreachable
}

; Function Attrs: mustprogress nounwind uwtable
define internal noundef zeroext i1 @"_ZNSt14_Function_base13_Base_managerIZN8facebook5velox9functions25registerSubscriptFunctionERKNSt7__cxx1112basic_stringIcSt11char_traitsIcESaIcEEEbE3$_0E21_M_not_empty_functionISC_EEbRKT_"(ptr noundef nonnull align 1 dereferenceable(1) %0) #2 align 2 {
entry:
  %.addr = alloca ptr, align 8
  store ptr %0, ptr %.addr, align 8
  ret i1 true
}

; Function Attrs: mustprogress nounwind uwtable
define linkonce_odr void @_ZNSt14_Function_baseC2Ev(ptr noundef nonnull align 8 dereferenceable(24) %this) unnamed_addr #2 comdat align 2 {
entry:
  %this.addr = alloca ptr, align 8
  store ptr %this, ptr %this.addr, align 8
  %this1 = load ptr, ptr %this.addr, align 8
  %_M_functor = getelementptr inbounds %"class.std::_Function_base", ptr %this1, i32 0, i32 0
  store ptr null, ptr %_M_functor, align 8
  %_M_manager = getelementptr inbounds %"class.std::_Function_base", ptr %this1, i32 0, i32 1
  store ptr null, ptr %_M_manager, align 8
  ret void
}

; Function Attrs: mustprogress nounwind uwtable
define linkonce_odr void @_ZNSt8functionIFSt10shared_ptrIN8facebook5velox4exec14VectorFunctionEERKNSt7__cxx1112basic_stringIcSt11char_traitsIcESaIcEEERKSt6vectorINS3_17VectorFunctionArgESaISF_EERKNS2_4core11QueryConfigEEED2Ev(ptr noundef nonnull align 8 dereferenceable(32) %this) unnamed_addr #2 comdat align 2 {
entry:
  %this.addr = alloca ptr, align 8
  store ptr %this, ptr %this.addr, align 8
  %this1 = load ptr, ptr %this.addr, align 8
  call void @_ZNSt14_Function_baseD2Ev(ptr noundef nonnull align 8 dereferenceable(24) %this1) #11
  ret void
}

; Function Attrs: mustprogress nounwind uwtable
define internal void @"_ZNSt8functionIFSt10shared_ptrIN8facebook5velox4exec14VectorFunctionEERKNSt7__cxx1112basic_stringIcSt11char_traitsIcESaIcEEERKSt6vectorINS3_17VectorFunctionArgESaISF_EERKNS2_4core11QueryConfigEEEC2IZNS2_9functions25registerSubscriptFunctionESD_bE3$_0vEEOT_"(ptr noundef nonnull align 8 dereferenceable(32) %this, ptr noundef nonnull align 1 dereferenceable(1) %__f) unnamed_addr #2 align 2 {
entry:
  %this.addr = alloca ptr, align 8
  %__f.addr = alloca ptr, align 8
  store ptr %this, ptr %this.addr, align 8
  store ptr %__f, ptr %__f.addr, align 8
  %this1 = load ptr, ptr %this.addr, align 8
  %0 = getelementptr inbounds i8, ptr %this1, i64 0
  call void @llvm.memset.p0.i64(ptr align 8 %0, i8 0, i64 24, i1 false)
  call void @_ZNSt14_Function_baseC2Ev(ptr noundef nonnull align 8 dereferenceable(24) %this1) #11
  %_M_invoker = getelementptr inbounds %"class.std::function", ptr %this1, i32 0, i32 1
  store ptr null, ptr %_M_invoker, align 8
  %1 = load ptr, ptr %__f.addr, align 8
  %call = call noundef zeroext i1 @"_ZNSt14_Function_base13_Base_managerIZN8facebook5velox9functions25registerSubscriptFunctionERKNSt7__cxx1112basic_stringIcSt11char_traitsIcESaIcEEEbE3$_0E21_M_not_empty_functionISC_EEbRKT_"(ptr noundef nonnull align 1 dereferenceable(1) %1) #11
  br i1 %call, label %if.then, label %if.end

if.then:                                          ; preds = %entry
  %_M_functor = getelementptr inbounds %"class.std::_Function_base", ptr %this1, i32 0, i32 0
  %2 = load ptr, ptr %__f.addr, align 8
  call void @"_ZNSt14_Function_base13_Base_managerIZN8facebook5velox9functions25registerSubscriptFunctionERKNSt7__cxx1112basic_stringIcSt11char_traitsIcESaIcEEEbE3$_0E15_M_init_functorISC_EEvRSt9_Any_dataOT_"(ptr noundef nonnull align 8 dereferenceable(16) %_M_functor, ptr noundef nonnull align 1 dereferenceable(1) %2) #11
  %_M_invoker2 = getelementptr inbounds %"class.std::function", ptr %this1, i32 0, i32 1
  store ptr @"_ZNSt17_Function_handlerIFSt10shared_ptrIN8facebook5velox4exec14VectorFunctionEERKNSt7__cxx1112basic_stringIcSt11char_traitsIcESaIcEEERKSt6vectorINS3_17VectorFunctionArgESaISF_EERKNS2_4core11QueryConfigEEZNS2_9functions25registerSubscriptFunctionESD_bE3$_0E9_M_invokeERKSt9_Any_dataSD_SJ_SN_", ptr %_M_invoker2, align 8
  %_M_manager = getelementptr inbounds %"class.std::_Function_base", ptr %this1, i32 0, i32 1
  store ptr @"_ZNSt17_Function_handlerIFSt10shared_ptrIN8facebook5velox4exec14VectorFunctionEERKNSt7__cxx1112basic_stringIcSt11char_traitsIcESaIcEEERKSt6vectorINS3_17VectorFunctionArgESaISF_EERKNS2_4core11QueryConfigEEZNS2_9functions25registerSubscriptFunctionESD_bE3$_0E10_M_managerERSt9_Any_dataRKSS_St18_Manager_operation", ptr %_M_manager, align 8
  br label %if.end

if.end:                                           ; preds = %if.then, %entry
  ret void
}

; Function Attrs: mustprogress uwtable
define void @_ZN8facebook5velox9functions25registerSubscriptFunctionERKNSt7__cxx1112basic_stringIcSt11char_traitsIcESaIcEEEb(ptr noundef nonnull align 8 dereferenceable(32) %name, i1 noundef zeroext %enableCaching) #0 personality ptr @__gxx_personality_v0 {
entry:
  %name.addr = alloca ptr, align 8
  %enableCaching.addr = alloca i8, align 1
  %agg.tmp = alloca %"class.std::vector", align 8
  %agg.tmp1 = alloca %"class.std::function", align 8
  %ref.tmp = alloca %class.anon, align 1
  %agg.tmp3 = alloca %"struct.facebook::velox::exec::VectorFunctionMetadata", align 1
  %exn.slot = alloca ptr, align 8
  %ehselector.slot = alloca i32, align 4
  store ptr %name, ptr %name.addr, align 8
  %frombool = zext i1 %enableCaching to i8
  store i8 %frombool, ptr %enableCaching.addr, align 1
  %0 = load ptr, ptr %name.addr, align 8
  call void @_ZN8facebook5velox9functions13SubscriptImplILb0ELb0ELb0ELb1EE10signaturesEv(ptr sret(%"class.std::vector") align 8 %agg.tmp)
  %1 = getelementptr inbounds %class.anon, ptr %ref.tmp, i32 0, i32 0
  %2 = load i8, ptr %enableCaching.addr, align 1
  %tobool = trunc i8 %2 to i1
  %frombool2 = zext i1 %tobool to i8
  store i8 %frombool2, ptr %1, align 1
  call void @"_ZNSt8functionIFSt10shared_ptrIN8facebook5velox4exec14VectorFunctionEERKNSt7__cxx1112basic_stringIcSt11char_traitsIcESaIcEEERKSt6vectorINS3_17VectorFunctionArgESaISF_EERKNS2_4core11QueryConfigEEEC2IZNS2_9functions25registerSubscriptFunctionESD_bE3$_0vEEOT_"(ptr noundef nonnull align 8 dereferenceable(32) %agg.tmp1, ptr noundef nonnull align 1 dereferenceable(1) %ref.tmp) #11
  %supportsFlattening = getelementptr inbounds %"struct.facebook::velox::exec::VectorFunctionMetadata", ptr %agg.tmp3, i32 0, i32 0
  store i8 0, ptr %supportsFlattening, align 1
  %coerce.dive = getelementptr inbounds %"struct.facebook::velox::exec::VectorFunctionMetadata", ptr %agg.tmp3, i32 0, i32 0
  %3 = load i8, ptr %coerce.dive, align 1
  %call = invoke noundef zeroext i1 @_ZN8facebook5velox4exec30registerStatefulVectorFunctionERKNSt7__cxx1112basic_stringIcSt11char_traitsIcESaIcEEESt6vectorISt10shared_ptrINS1_17FunctionSignatureEESaISD_EESt8functionIFSB_INS1_14VectorFunctionEES9_RKSA_INS1_17VectorFunctionArgESaISJ_EERKNS0_4core11QueryConfigEEENS1_22VectorFunctionMetadataEb(ptr noundef nonnull align 8 dereferenceable(32) %0, ptr noundef %agg.tmp, ptr noundef %agg.tmp1, i8 %3, i1 noundef zeroext true)
          to label %invoke.cont unwind label %lpad

invoke.cont:                                      ; preds = %entry
  call void @_ZNSt8functionIFSt10shared_ptrIN8facebook5velox4exec14VectorFunctionEERKNSt7__cxx1112basic_stringIcSt11char_traitsIcESaIcEEERKSt6vectorINS3_17VectorFunctionArgESaISF_EERKNS2_4core11QueryConfigEEED2Ev(ptr noundef nonnull align 8 dereferenceable(32) %agg.tmp1) #11
  call void @_ZNSt6vectorISt10shared_ptrIN8facebook5velox4exec17FunctionSignatureEESaIS5_EED2Ev(ptr noundef nonnull align 8 dereferenceable(24) %agg.tmp) #11
  ret void

lpad:                                             ; preds = %entry
  %4 = landingpad { ptr, i32 }
          cleanup
  %5 = extractvalue { ptr, i32 } %4, 0
  store ptr %5, ptr %exn.slot, align 8
  %6 = extractvalue { ptr, i32 } %4, 1
  store i32 %6, ptr %ehselector.slot, align 4
  call void @_ZNSt8functionIFSt10shared_ptrIN8facebook5velox4exec14VectorFunctionEERKNSt7__cxx1112basic_stringIcSt11char_traitsIcESaIcEEERKSt6vectorINS3_17VectorFunctionArgESaISF_EERKNS2_4core11QueryConfigEEED2Ev(ptr noundef nonnull align 8 dereferenceable(32) %agg.tmp1) #11
  call void @_ZNSt6vectorISt10shared_ptrIN8facebook5velox4exec17FunctionSignatureEESaIS5_EED2Ev(ptr noundef nonnull align 8 dereferenceable(24) %agg.tmp) #11
  br label %eh.resume

eh.resume:                                        ; preds = %lpad
  %exn = load ptr, ptr %exn.slot, align 8
  %sel = load i32, ptr %ehselector.slot, align 4
  %lpad.val = insertvalue { ptr, i32 } poison, ptr %exn, 0
  %lpad.val4 = insertvalue { ptr, i32 } %lpad.val, i32 %sel, 1
  resume { ptr, i32 } %lpad.val4
}